target datalayout = "e-m:e-p270:32:32-p271:32:32-p272:64:64-i64:64-i128:128-f80:128-n8:16:32:64-S128"
target triple = "x86_64-unknown-linux-gnu"

@.str.25 = private unnamed_addr constant [3 x i8] c"no\00", align 1
@.str.36 = private unnamed_addr constant [4 x i8] c"yes\00", align 1
@.str.103 = private unnamed_addr constant [6 x i8] c"%s %s\00", align 1

; Function Attrs: nounwind uwtable
define dso_local void @rewriteConfigYesNoOption(ptr noundef %state, ptr noundef %option, i32 noundef %value, i32 noundef %defvalue) #0 {
entry:
  %state.addr = alloca ptr, align 8
  %option.addr = alloca ptr, align 8
  %value.addr = alloca i32, align 4
  %defvalue.addr = alloca i32, align 4
  %force = alloca i32, align 4
  %line = alloca ptr, align 8
  store ptr %state, ptr %state.addr, align 8
  store ptr %option, ptr %option.addr, align 8
  store i32 %value, ptr %value.addr, align 4
  store i32 %defvalue, ptr %defvalue.addr, align 4
  %0 = load i32, ptr %value.addr, align 4
  %1 = load i32, ptr %defvalue.addr, align 4
  %cmp = icmp ne i32 %0, %1
  %conv = zext i1 %cmp to i32
  store i32 %conv, ptr %force, align 4
  %call = call ptr @sdsempty()
  %2 = load ptr, ptr %option.addr, align 8
  %3 = load i32, ptr %value.addr, align 4
  %tobool = icmp ne i32 %3, 0
  %cond = select i1 %tobool, ptr @.str.36, ptr @.str.25
  %call1 = call ptr (ptr, ptr, ...) @sdscatprintf(ptr noundef %call, ptr noundef @.str.103, ptr noundef %2, ptr noundef %cond)
  store ptr %call1, ptr %line, align 8
  %4 = load ptr, ptr %state.addr, align 8
  %5 = load ptr, ptr %option.addr, align 8
  %6 = load ptr, ptr %line, align 8
  %7 = load i32, ptr %force, align 4
  %call2 = call i32 @rewriteConfigRewriteLine(ptr noundef %4, ptr noundef %5, ptr noundef %6, i32 noundef %7)
  ret void
}