; Function Attrs: nounwind uwtable
define dso_local void @rewriteConfigYesNoOption(ptr nocapture noundef %state, ptr noundef %option, i32 noundef %value, i32 noundef %defvalue) local_unnamed_addr #2 {
entry:
  %cmp = icmp ne i32 %value, %defvalue
  %conv = zext i1 %cmp to i32
  %call = tail call ptr @sdsempty() #24
  %tobool.not = icmp eq i32 %value, 0
  %cond = select i1 %tobool.not, ptr @.str.25, ptr @.str.36
  %call1 = tail call ptr (ptr, ptr, ...) @sdscatprintf(ptr noundef %call, ptr noundef nonnull @.str.103, ptr noundef %option, ptr noundef nonnull %cond) #24
  %call2 = tail call i32 @rewriteConfigRewriteLine(ptr noundef %state, ptr noundef %option, ptr noundef %call1, i32 noundef %conv), !range !30
  ret void
}